target datalayout = "e-m:e-p270:32:32-p271:32:32-p272:64:64-i64:64-i128:128-f80:128-n8:16:32:64-S128"
target triple = "x86_64-pc-linux-gnu"

%struct.XLogCtlData = type { %struct.XLogCtlInsert, %struct.XLogwrtRqst, i64, %struct.FullTransactionId, i64, i64, i64, %struct.pg_atomic_uint64, i64, i64, %struct.pg_atomic_uint64, %struct.pg_atomic_uint64, %struct.pg_atomic_uint64, i64, ptr, ptr, i32, i32, i32, i32, i8, i8, i64, i64, %struct.CheckPoint, i64, i8 }
%struct.XLogCtlInsert = type { i8, i64, i64, [128 x i8], i64, i8, i32, i64, ptr }
%struct.XLogwrtRqst = type { i64, i64 }
%struct.FullTransactionId = type { i64 }
%struct.pg_atomic_uint64 = type { i64 }
%struct.CheckPoint = type { i64, i32, i32, i8, i32, %struct.FullTransactionId, i32, i32, i32, i32, i32, i32, i32, i64, i32, i32, i32 }
%struct.dirent = type { i64, i64, i16, i8, [256 x i8] }

@max_wal_size_mb = dso_local global i32 1024, align 4
@min_wal_size_mb = dso_local global i32 80, align 4
@wal_segment_size = dso_local global i32 16777216, align 4
@XLogCtl = internal global ptr null, align 8
@.str.14 = private unnamed_addr constant [7 x i8] c"xlog.c\00", align 1
@CheckPointCompletionTarget = external global double, align 8
@.str.22 = private unnamed_addr constant [7 x i8] c"pg_wal\00", align 1
@.str.118 = private unnamed_addr constant [13 x i8] c"%08X%08X%08X\00", align 1
@.str.119 = private unnamed_addr constant [17 x i8] c"0123456789ABCDEF\00", align 1
@CheckPointDistanceEstimate = internal global double 0.000000e+00, align 8
@.str.189 = private unnamed_addr constant [57 x i8] c"attempting to remove WAL segments older than log file %s\00", align 1
@__func__.RemoveOldXlogFiles = private unnamed_addr constant [19 x i8] c"RemoveOldXlogFiles\00", align 1
@.str.190 = private unnamed_addr constant [9 x i8] c".partial\00", align 1
@__func__.UpdateLastRemovedPtr = private unnamed_addr constant [21 x i8] c"UpdateLastRemovedPtr\00", align 1

; Function Attrs: inlinehint nounwind uwtable
define internal i32 @tas(ptr noundef %0) #6 {
  %2 = alloca ptr, align 8
  %3 = alloca i8, align 1
  store ptr %0, ptr %2, align 8
  call void @llvm.lifetime.start.p0(i64 1, ptr %3) #16
  store i8 1, ptr %3, align 1
  %4 = load i8, ptr %3, align 1
  %5 = load ptr, ptr %2, align 8
  %6 = call i8 asm sideeffect "\09lock\09\09\09\0A\09xchgb\09$0,$1\09\0A", "=q,=*m,0,*m,~{memory},~{cc},~{dirflag},~{fpsr},~{flags}"(ptr elementtype(i8) %5, i8 %4, ptr elementtype(i8) %5) #16, !srcloc !18
  store i8 %6, ptr %3, align 1
  %7 = load i8, ptr %3, align 1
  %8 = zext i8 %7 to i32
  call void @llvm.lifetime.end.p0(i64 1, ptr %3) #16
  ret i32 %8
}

; Function Attrs: inlinehint nounwind uwtable
define internal void @XLogFromFileName(ptr noundef %0, ptr noundef %1, ptr noundef %2, i32 noundef %3) #6 {
  %5 = alloca ptr, align 8
  %6 = alloca ptr, align 8
  %7 = alloca ptr, align 8
  %8 = alloca i32, align 4
  %9 = alloca i32, align 4
  %10 = alloca i32, align 4
  store ptr %0, ptr %5, align 8
  store ptr %1, ptr %6, align 8
  store ptr %2, ptr %7, align 8
  store i32 %3, ptr %8, align 4
  call void @llvm.lifetime.start.p0(i64 4, ptr %9) #16
  call void @llvm.lifetime.start.p0(i64 4, ptr %10) #16
  %11 = load ptr, ptr %5, align 8
  %12 = load ptr, ptr %6, align 8
  %13 = call i32 (ptr, ptr, ...) @__isoc99_sscanf(ptr noundef %11, ptr noundef @.str.118, ptr noundef %12, ptr noundef %9, ptr noundef %10) #16
  %14 = load i32, ptr %9, align 4
  %15 = zext i32 %14 to i64
  %16 = load i32, ptr %8, align 4
  %17 = sext i32 %16 to i64
  %18 = udiv i64 4294967296, %17
  %19 = mul i64 %15, %18
  %20 = load i32, ptr %10, align 4
  %21 = zext i32 %20 to i64
  %22 = add i64 %19, %21
  %23 = load ptr, ptr %7, align 8
  store i64 %22, ptr %23, align 8
  call void @llvm.lifetime.end.p0(i64 4, ptr %10) #16
  call void @llvm.lifetime.end.p0(i64 4, ptr %9) #16
  ret void
}

; Function Attrs: nounwind uwtable
define internal void @UpdateLastRemovedPtr(ptr noundef %0) #0 {
  %2 = alloca ptr, align 8
  %3 = alloca i32, align 4
  %4 = alloca i64, align 8
  store ptr %0, ptr %2, align 8
  call void @llvm.lifetime.start.p0(i64 4, ptr %3) #16
  call void @llvm.lifetime.start.p0(i64 8, ptr %4) #16
  %5 = load ptr, ptr %2, align 8
  %6 = load i32, ptr @wal_segment_size, align 4
  call void @XLogFromFileName(ptr noundef %5, ptr noundef %3, ptr noundef %4, i32 noundef %6)
  %7 = load ptr, ptr @XLogCtl, align 8
  %8 = getelementptr inbounds nuw %struct.XLogCtlData, ptr %7, i32 0, i32 26
  %9 = call i32 @tas(ptr noundef %8)
  %10 = icmp ne i32 %9, 0
  br i1 %10, label %11, label %15

11:                                               ; preds = %1
  %12 = load ptr, ptr @XLogCtl, align 8
  %13 = getelementptr inbounds nuw %struct.XLogCtlData, ptr %12, i32 0, i32 26
  %14 = call i32 @s_lock(ptr noundef %13, ptr noundef @.str.14, i32 noundef 3840, ptr noundef @__func__.UpdateLastRemovedPtr)
  br label %16

15:                                               ; preds = %1
  br label %16

16:                                               ; preds = %15, %11
  %17 = load i64, ptr %4, align 8
  %18 = load ptr, ptr @XLogCtl, align 8
  %19 = getelementptr inbounds nuw %struct.XLogCtlData, ptr %18, i32 0, i32 6
  %20 = load i64, ptr %19, align 8
  %21 = icmp ugt i64 %17, %20
  br i1 %21, label %22, label %26

22:                                               ; preds = %16
  %23 = load i64, ptr %4, align 8
  %24 = load ptr, ptr @XLogCtl, align 8
  %25 = getelementptr inbounds nuw %struct.XLogCtlData, ptr %24, i32 0, i32 6
  store i64 %23, ptr %25, align 8
  br label %26

26:                                               ; preds = %22, %16
  br label %27

27:                                               ; preds = %26
  call void asm sideeffect "", "~{memory},~{dirflag},~{fpsr},~{flags}"() #16, !srcloc !106
  %28 = load ptr, ptr @XLogCtl, align 8
  %29 = getelementptr inbounds nuw %struct.XLogCtlData, ptr %28, i32 0, i32 26
  store i8 0, ptr %29, align 8
  br label %30

30:                                               ; preds = %27
  br label %31

31:                                               ; preds = %30
  call void @llvm.lifetime.end.p0(i64 8, ptr %4) #16
  call void @llvm.lifetime.end.p0(i64 4, ptr %3) #16
  ret void
}

; Function Attrs: inlinehint nounwind uwtable
define internal zeroext i1 @IsPartialXLogFileName(ptr noundef %0) #6 {
  %2 = alloca ptr, align 8
  store ptr %0, ptr %2, align 8
  %3 = load ptr, ptr %2, align 8
  %4 = call i64 @strlen(ptr noundef %3) #19
  %5 = icmp eq i64 %4, 32
  br i1 %5, label %6, label %15

6:                                                ; preds = %1
  %7 = load ptr, ptr %2, align 8
  %8 = call i64 @strspn(ptr noundef %7, ptr noundef @.str.119) #19
  %9 = icmp eq i64 %8, 24
  br i1 %9, label %10, label %15

10:                                               ; preds = %6
  %11 = load ptr, ptr %2, align 8
  %12 = getelementptr inbounds i8, ptr %11, i64 24
  %13 = call i32 @strcmp(ptr noundef %12, ptr noundef @.str.190) #19
  %14 = icmp eq i32 %13, 0
  br label %15

15:                                               ; preds = %10, %6, %1
  %16 = phi i1 [ false, %6 ], [ false, %1 ], [ %14, %10 ]
  ret i1 %16
}

; Function Attrs: inlinehint nounwind uwtable
define internal zeroext i1 @IsXLogFileName(ptr noundef %0) #6 {
  %2 = alloca ptr, align 8
  store ptr %0, ptr %2, align 8
  %3 = load ptr, ptr %2, align 8
  %4 = call i64 @strlen(ptr noundef %3) #19
  %5 = icmp eq i64 %4, 24
  br i1 %5, label %6, label %10

6:                                                ; preds = %1
  %7 = load ptr, ptr %2, align 8
  %8 = call i64 @strspn(ptr noundef %7, ptr noundef @.str.119) #19
  %9 = icmp eq i64 %8, 24
  br label %10

10:                                               ; preds = %6, %1
  %11 = phi i1 [ false, %1 ], [ %9, %6 ]
  ret i1 %11
}

; Function Attrs: inlinehint nounwind uwtable
define internal void @XLogFileName(ptr noundef %0, i32 noundef %1, i64 noundef %2, i32 noundef %3) #6 {
  %5 = alloca ptr, align 8
  %6 = alloca i32, align 4
  %7 = alloca i64, align 8
  %8 = alloca i32, align 4
  store ptr %0, ptr %5, align 8
  store i32 %1, ptr %6, align 4
  store i64 %2, ptr %7, align 8
  store i32 %3, ptr %8, align 4
  %9 = load ptr, ptr %5, align 8
  %10 = load i32, ptr %6, align 4
  %11 = load i64, ptr %7, align 8
  %12 = load i32, ptr %8, align 4
  %13 = sext i32 %12 to i64
  %14 = udiv i64 4294967296, %13
  %15 = udiv i64 %11, %14
  %16 = trunc i64 %15 to i32
  %17 = load i64, ptr %7, align 8
  %18 = load i32, ptr %8, align 4
  %19 = sext i32 %18 to i64
  %20 = udiv i64 4294967296, %19
  %21 = urem i64 %17, %20
  %22 = trunc i64 %21 to i32
  %23 = call i32 (ptr, i64, ptr, ...) @pg_snprintf(ptr noundef %9, i64 noundef 64, ptr noundef @.str.118, i32 noundef %10, i32 noundef %16, i32 noundef %22)
  ret void
}

; Function Attrs: nounwind uwtable
define internal i64 @XLOGfileslop(i64 noundef %0) #0 {
  %2 = alloca i64, align 8
  %3 = alloca i64, align 8
  %4 = alloca i64, align 8
  %5 = alloca double, align 8
  %6 = alloca i64, align 8
  store i64 %0, ptr %2, align 8
  call void @llvm.lifetime.start.p0(i64 8, ptr %3) #16
  call void @llvm.lifetime.start.p0(i64 8, ptr %4) #16
  call void @llvm.lifetime.start.p0(i64 8, ptr %5) #16
  call void @llvm.lifetime.start.p0(i64 8, ptr %6) #16
  %7 = load i64, ptr %2, align 8
  %8 = load i32, ptr @wal_segment_size, align 4
  %9 = sext i32 %8 to i64
  %10 = udiv i64 %7, %9
  %11 = load i32, ptr @min_wal_size_mb, align 4
  %12 = load i32, ptr @wal_segment_size, align 4
  %13 = sdiv i32 %12, 1048576
  %14 = sdiv i32 %11, %13
  %15 = sext i32 %14 to i64
  %16 = add i64 %10, %15
  %17 = sub i64 %16, 1
  store i64 %17, ptr %3, align 8
  %18 = load i64, ptr %2, align 8
  %19 = load i32, ptr @wal_segment_size, align 4
  %20 = sext i32 %19 to i64
  %21 = udiv i64 %18, %20
  %22 = load i32, ptr @max_wal_size_mb, align 4
  %23 = load i32, ptr @wal_segment_size, align 4
  %24 = sdiv i32 %23, 1048576
  %25 = sdiv i32 %22, %24
  %26 = sext i32 %25 to i64
  %27 = add i64 %21, %26
  %28 = sub i64 %27, 1
  store i64 %28, ptr %4, align 8
  %29 = load double, ptr @CheckPointCompletionTarget, align 8
  %30 = fadd double 1.000000e+00, %29
  %31 = load double, ptr @CheckPointDistanceEstimate, align 8
  %32 = fmul double %30, %31
  store double %32, ptr %5, align 8
  %33 = load double, ptr %5, align 8
  %34 = fmul double %33, 1.100000e+00
  store double %34, ptr %5, align 8
  %35 = load i64, ptr %2, align 8
  %36 = uitofp i64 %35 to double
  %37 = load double, ptr %5, align 8
  %38 = fadd double %36, %37
  %39 = load i32, ptr @wal_segment_size, align 4
  %40 = sitofp i32 %39 to double
  %41 = fdiv double %38, %40
  %42 = call double @llvm.ceil.f64(double %41)
  %43 = fptoui double %42 to i64
  store i64 %43, ptr %6, align 8
  %44 = load i64, ptr %6, align 8
  %45 = load i64, ptr %3, align 8
  %46 = icmp ult i64 %44, %45
  br i1 %46, label %47, label %49

47:                                               ; preds = %1
  %48 = load i64, ptr %3, align 8
  store i64 %48, ptr %6, align 8
  br label %49

49:                                               ; preds = %47, %1
  %50 = load i64, ptr %6, align 8
  %51 = load i64, ptr %4, align 8
  %52 = icmp ugt i64 %50, %51
  br i1 %52, label %53, label %55

53:                                               ; preds = %49
  %54 = load i64, ptr %4, align 8
  store i64 %54, ptr %6, align 8
  br label %55

55:                                               ; preds = %53, %49
  %56 = load i64, ptr %6, align 8
  call void @llvm.lifetime.end.p0(i64 8, ptr %6) #16
  call void @llvm.lifetime.end.p0(i64 8, ptr %5) #16
  call void @llvm.lifetime.end.p0(i64 8, ptr %4) #16
  call void @llvm.lifetime.end.p0(i64 8, ptr %3) #16
  ret i64 %56
}

; Function Attrs: nounwind uwtable
define internal void @RemoveOldXlogFiles(i64 noundef %0, i64 noundef %1, i64 noundef %2, i32 noundef %3) #0 {
  %5 = alloca i64, align 8
  %6 = alloca i64, align 8
  %7 = alloca i64, align 8
  %8 = alloca i32, align 4
  %9 = alloca ptr, align 8
  %10 = alloca ptr, align 8
  %11 = alloca [64 x i8], align 16
  %12 = alloca i64, align 8
  %13 = alloca i64, align 8
  store i64 %0, ptr %5, align 8
  store i64 %1, ptr %6, align 8
  store i64 %2, ptr %7, align 8
  store i32 %3, ptr %8, align 4
  call void @llvm.lifetime.start.p0(i64 8, ptr %9) #16
  call void @llvm.lifetime.start.p0(i64 8, ptr %10) #16
  call void @llvm.lifetime.start.p0(i64 64, ptr %11) #16
  call void @llvm.lifetime.start.p0(i64 8, ptr %12) #16
  call void @llvm.lifetime.start.p0(i64 8, ptr %13) #16
  %14 = load i64, ptr %7, align 8
  %15 = load i32, ptr @wal_segment_size, align 4
  %16 = sext i32 %15 to i64
  %17 = udiv i64 %14, %16
  store i64 %17, ptr %12, align 8
  %18 = load i64, ptr %6, align 8
  %19 = call i64 @XLOGfileslop(i64 noundef %18)
  store i64 %19, ptr %13, align 8
  %20 = getelementptr inbounds [64 x i8], ptr %11, i64 0, i64 0
  %21 = load i64, ptr %5, align 8
  %22 = load i32, ptr @wal_segment_size, align 4
  call void @XLogFileName(ptr noundef %20, i32 noundef 0, i64 noundef %21, i32 noundef %22)
  br label %23

23:                                               ; preds = %4
  br i1 false, label %24, label %26

24:                                               ; preds = %23
  %25 = call zeroext i1 @errstart_cold(i32 noundef 13, ptr noundef null) #17
  br i1 %25, label %28, label %31

26:                                               ; preds = %23
  %27 = call zeroext i1 @errstart(i32 noundef 13, ptr noundef null)
  br i1 %27, label %28, label %31

28:                                               ; preds = %26, %24
  %29 = getelementptr inbounds [64 x i8], ptr %11, i64 0, i64 0
  %30 = call i32 (ptr, ...) @errmsg_internal(ptr noundef @.str.189, ptr noundef %29)
  call void @errfinish(ptr noundef @.str.14, i32 noundef 3907, ptr noundef @__func__.RemoveOldXlogFiles)
  br label %31

31:                                               ; preds = %28, %26, %24
  br label %32

32:                                               ; preds = %31
  br label %33

33:                                               ; preds = %32
  %34 = call ptr @AllocateDir(ptr noundef @.str.22)
  store ptr %34, ptr %9, align 8
  br label %35

35:                                               ; preds = %72, %49, %33
  %36 = load ptr, ptr %9, align 8
  %37 = call ptr @ReadDir(ptr noundef %36, ptr noundef @.str.22)
  store ptr %37, ptr %10, align 8
  %38 = icmp ne ptr %37, null
  br i1 %38, label %39, label %73

39:                                               ; preds = %35
  %40 = load ptr, ptr %10, align 8
  %41 = getelementptr inbounds nuw %struct.dirent, ptr %40, i32 0, i32 4
  %42 = getelementptr inbounds [256 x i8], ptr %41, i64 0, i64 0
  %43 = call zeroext i1 @IsXLogFileName(ptr noundef %42)
  br i1 %43, label %50, label %44

44:                                               ; preds = %39
  %45 = load ptr, ptr %10, align 8
  %46 = getelementptr inbounds nuw %struct.dirent, ptr %45, i32 0, i32 4
  %47 = getelementptr inbounds [256 x i8], ptr %46, i64 0, i64 0
  %48 = call zeroext i1 @IsPartialXLogFileName(ptr noundef %47)
  br i1 %48, label %50, label %49

49:                                               ; preds = %44
  br label %35, !llvm.loop !82

50:                                               ; preds = %44, %39
  %51 = load ptr, ptr %10, align 8
  %52 = getelementptr inbounds nuw %struct.dirent, ptr %51, i32 0, i32 4
  %53 = getelementptr inbounds [256 x i8], ptr %52, i64 0, i64 0
  %54 = getelementptr inbounds i8, ptr %53, i64 8
  %55 = getelementptr inbounds [64 x i8], ptr %11, i64 0, i64 0
  %56 = getelementptr inbounds i8, ptr %55, i64 8
  %57 = call i32 @strcmp(ptr noundef %54, ptr noundef %56) #19
  %58 = icmp sle i32 %57, 0
  br i1 %58, label %59, label %72

59:                                               ; preds = %50
  %60 = load ptr, ptr %10, align 8
  %61 = getelementptr inbounds nuw %struct.dirent, ptr %60, i32 0, i32 4
  %62 = getelementptr inbounds [256 x i8], ptr %61, i64 0, i64 0
  %63 = call zeroext i1 @XLogArchiveCheckDone(ptr noundef %62)
  br i1 %63, label %64, label %71

64:                                               ; preds = %59
  %65 = load ptr, ptr %10, align 8
  %66 = getelementptr inbounds nuw %struct.dirent, ptr %65, i32 0, i32 4
  %67 = getelementptr inbounds [256 x i8], ptr %66, i64 0, i64 0
  call void @UpdateLastRemovedPtr(ptr noundef %67)
  %68 = load ptr, ptr %10, align 8
  %69 = load i64, ptr %13, align 8
  %70 = load i32, ptr %8, align 4
  call void @RemoveXlogFile(ptr noundef %68, i64 noundef %69, ptr noundef %12, i32 noundef %70)
  br label %71

71:                                               ; preds = %64, %59
  br label %72

72:                                               ; preds = %71, %50
  br label %35, !llvm.loop !82

73:                                               ; preds = %35
  %74 = load ptr, ptr %9, align 8
  %75 = call i32 @FreeDir(ptr noundef %74)
  call void @llvm.lifetime.end.p0(i64 8, ptr %13) #16
  call void @llvm.lifetime.end.p0(i64 8, ptr %12) #16
  call void @llvm.lifetime.end.p0(i64 64, ptr %11) #16
  call void @llvm.lifetime.end.p0(i64 8, ptr %10) #16
  call void @llvm.lifetime.end.p0(i64 8, ptr %9) #16
  ret void
}