; Function Attrs: nounwind uwtable
define internal fastcc void @RemoveOldXlogFiles(i64 noundef %0, i64 noundef %1, i64 noundef %2, i32 noundef %3) unnamed_addr #0 {
  %5 = alloca i32, align 4
  %6 = alloca i32, align 4
  %7 = alloca i32, align 4
  %8 = alloca [64 x i8], align 16
  %9 = alloca i64, align 8
  call void @llvm.lifetime.start.p0(i64 64, ptr nonnull %8) #26
  call void @llvm.lifetime.start.p0(i64 8, ptr nonnull %9) #26
  %10 = load i32, ptr @wal_segment_size, align 4
  %11 = sext i32 %10 to i64
  %12 = udiv i64 %2, %11
  store i64 %12, ptr %9, align 8
  %13 = udiv i64 %1, %11
  %14 = load i32, ptr @min_wal_size_mb, align 4
  %15 = sdiv i32 %10, 1048576
  %16 = sdiv i32 %14, %15
  %17 = sext i32 %16 to i64
  %18 = add i64 %13, -1
  %19 = add i64 %18, %17
  %20 = load i32, ptr @max_wal_size_mb, align 4
  %21 = sdiv i32 %20, %15
  %22 = sext i32 %21 to i64
  %23 = add i64 %18, %22
  %24 = load double, ptr @CheckPointCompletionTarget, align 8
  %25 = fadd double %24, 1.000000e+00
  %26 = load double, ptr @CheckPointDistanceEstimate, align 8
  %27 = fmul double %25, %26
  %28 = fmul double %27, 1.100000e+00
  %29 = uitofp i64 %1 to double
  %30 = fadd double %28, %29
  %31 = sitofp i32 %10 to double
  %32 = fdiv double %30, %31
  %33 = tail call double @llvm.ceil.f64(double %32)
  %34 = fptoui double %33 to i64
  %spec.select.i = tail call i64 @llvm.umax.i64(i64 %19, i64 %34)
  %.1.i = tail call i64 @llvm.umin.i64(i64 %spec.select.i, i64 %23)
  %35 = udiv i64 4294967296, %11
  %36 = udiv i64 %0, %35
  %37 = trunc i64 %36 to i32
  %38 = urem i64 %0, %35
  %39 = trunc nuw i64 %38 to i32
  %40 = call i32 (ptr, i64, ptr, ...) @pg_snprintf(ptr noundef nonnull %8, i64 noundef 64, ptr noundef nonnull @.str.118, i32 noundef 0, i32 noundef %37, i32 noundef %39) #26
  %41 = call zeroext i1 @errstart(i32 noundef 13, ptr noundef null) #26
  br i1 %41, label %42, label %44

42:                                               ; preds = %4
  %43 = call i32 (ptr, ...) @errmsg_internal(ptr noundef nonnull @.str.189, ptr noundef nonnull %8) #26
  call void @errfinish(ptr noundef nonnull @.str.14, i32 noundef 3907, ptr noundef nonnull @__func__.RemoveOldXlogFiles) #26
  br label %44

44:                                               ; preds = %42, %4
  %45 = call ptr @AllocateDir(ptr noundef nonnull @.str.22) #26
  %46 = call ptr @ReadDir(ptr noundef %45, ptr noundef nonnull @.str.22) #26
  %.not12 = icmp eq ptr %46, null
  br i1 %.not12, label %._crit_edge, label %.lr.ph

.lr.ph:                                           ; preds = %44
  %47 = getelementptr inbounds nuw i8, ptr %8, i64 8
  br label %48

48:                                               ; preds = %.lr.ph, %.backedge
  %49 = phi ptr [ %46, %.lr.ph ], [ %93, %.backedge ]
  %50 = getelementptr inbounds nuw i8, ptr %49, i64 19
  %51 = call i64 @strlen(ptr noundef nonnull readonly dereferenceable(1) %50) #29
  switch i64 %51, label %.backedge [
    i64 24, label %IsXLogFileName.exit
    i64 32, label %54
  ]

IsXLogFileName.exit:                              ; preds = %48
  %52 = call i64 @strspn(ptr noundef nonnull readonly %50, ptr noundef nonnull @.str.119) #29
  %53 = icmp eq i64 %52, 24
  br i1 %53, label %61, label %.backedge

54:                                               ; preds = %48
  %55 = call i64 @strspn(ptr noundef nonnull readonly %50, ptr noundef nonnull @.str.119) #29
  %56 = icmp eq i64 %55, 24
  br i1 %56, label %57, label %.backedge

57:                                               ; preds = %54
  %58 = getelementptr inbounds nuw i8, ptr %49, i64 43
  %59 = call i32 @strcmp(ptr noundef nonnull readonly dereferenceable(1) %58, ptr noundef nonnull dereferenceable(9) @.str.190) #29
  %60 = icmp eq i32 %59, 0
  br i1 %60, label %61, label %.backedge

61:                                               ; preds = %57, %IsXLogFileName.exit
  %62 = getelementptr inbounds nuw i8, ptr %49, i64 27
  %63 = call i32 @strcmp(ptr noundef nonnull dereferenceable(1) %62, ptr noundef nonnull dereferenceable(1) %47) #29
  %64 = icmp slt i32 %63, 1
  br i1 %64, label %65, label %.backedge

65:                                               ; preds = %61
  %66 = call zeroext i1 @XLogArchiveCheckDone(ptr noundef nonnull %50) #26
  br i1 %66, label %67, label %.backedge

67:                                               ; preds = %65
  call void @llvm.lifetime.start.p0(i64 4, ptr nonnull %7) #26
  %68 = load i32, ptr @wal_segment_size, align 4
  call void @llvm.lifetime.start.p0(i64 4, ptr nonnull %5) #26
  call void @llvm.lifetime.start.p0(i64 4, ptr nonnull %6) #26
  %69 = call i32 (ptr, ptr, ...) @__isoc99_sscanf(ptr noundef nonnull readonly %50, ptr noundef nonnull @.str.118, ptr noundef nonnull %7, ptr noundef nonnull %5, ptr noundef nonnull %6) #26
  %70 = load i32, ptr %5, align 4
  %71 = zext i32 %70 to i64
  %72 = sext i32 %68 to i64
  %73 = udiv i64 4294967296, %72
  %74 = mul nuw i64 %73, %71
  %75 = load i32, ptr %6, align 4
  %76 = zext i32 %75 to i64
  %77 = add nuw i64 %74, %76
  call void @llvm.lifetime.end.p0(i64 4, ptr nonnull %6) #26
  call void @llvm.lifetime.end.p0(i64 4, ptr nonnull %5) #26
  %78 = load ptr, ptr @XLogCtl, align 8
  %79 = getelementptr inbounds nuw i8, ptr %78, i64 448
  %80 = call i8 asm sideeffect "\09lock\09\09\09\0A\09xchgb\09$0,$1\09\0A", "=q,=*m,0,*m,~{memory},~{cc},~{dirflag},~{fpsr},~{flags}"(ptr nonnull elementtype(i8) %79, i8 1, ptr nonnull elementtype(i8) %79) #26, !srcloc !10
  %.not.i = icmp eq i8 %80, 0
  br i1 %.not.i, label %85, label %81

81:                                               ; preds = %67
  %82 = load ptr, ptr @XLogCtl, align 8
  %83 = getelementptr inbounds nuw i8, ptr %82, i64 448
  %84 = call i32 @s_lock(ptr noundef nonnull %83, ptr noundef nonnull @.str.14, i32 noundef 3840, ptr noundef nonnull @__func__.UpdateLastRemovedPtr) #26
  br label %85

85:                                               ; preds = %81, %67
  %86 = load ptr, ptr @XLogCtl, align 8
  %87 = getelementptr inbounds nuw i8, ptr %86, i64 232
  %88 = load i64, ptr %87, align 8
  %89 = icmp ugt i64 %77, %88
  br i1 %89, label %90, label %UpdateLastRemovedPtr.exit

90:                                               ; preds = %85
  store i64 %77, ptr %87, align 8
  br label %UpdateLastRemovedPtr.exit

UpdateLastRemovedPtr.exit:                        ; preds = %85, %90
  call void asm sideeffect "", "~{memory},~{dirflag},~{fpsr},~{flags}"() #26, !srcloc !83
  %91 = load ptr, ptr @XLogCtl, align 8
  %92 = getelementptr inbounds nuw i8, ptr %91, i64 448
  store i8 0, ptr %92, align 8
  call void @llvm.lifetime.end.p0(i64 4, ptr nonnull %7) #26
  call fastcc void @RemoveXlogFile(ptr noundef %49, i64 noundef %.1.i, ptr noundef %9, i32 noundef %3)
  br label %.backedge

.backedge:                                        ; preds = %61, %UpdateLastRemovedPtr.exit, %65, %54, %IsXLogFileName.exit, %48, %57
  %93 = call ptr @ReadDir(ptr noundef %45, ptr noundef nonnull @.str.22) #26
  %.not = icmp eq ptr %93, null
  br i1 %.not, label %._crit_edge, label %48, !llvm.loop !84

._crit_edge:                                      ; preds = %.backedge, %44
  %94 = call i32 @FreeDir(ptr noundef %45) #26
  call void @llvm.lifetime.end.p0(i64 8, ptr nonnull %9) #26
  call void @llvm.lifetime.end.p0(i64 64, ptr nonnull %8) #26
  ret void
}